; Function Attrs: nounwind uwtable
define noalias ptr @l_Std_Sat_AIG_RefVec_map___rarg(ptr readnone captures(none) %0, ptr readnone captures(none) %1, ptr noundef %2, ptr noundef %3, ptr noundef %4) local_unnamed_addr #0 {
  %6 = ptrtoint ptr %2 to i64
  %7 = and i64 %6, 1
  %.not.i20 = icmp eq i64 %7, 0
  br i1 %.not.i20, label %8, label %lean_mk_empty_array_with_capacity.exit

8:                                                ; preds = %5
  tail call void @lean_internal_panic_out_of_memory() #4
  unreachable

lean_mk_empty_array_with_capacity.exit:           ; preds = %5
  %9 = lshr i64 %6, 1
  %10 = shl i64 %9, 3
  %11 = add i64 %10, 24
  %12 = tail call ptr @lean_alloc_object(i64 noundef %11) #3
  store i32 1, ptr %12, align 4, !tbaa !5
  %13 = getelementptr inbounds nuw i8, ptr %12, i64 4
  %14 = load i32, ptr %13, align 4
  %15 = and i32 %14, 65535
  %16 = or disjoint i32 %15, -167772160
  store i32 %16, ptr %13, align 4
  %17 = getelementptr inbounds nuw i8, ptr %12, i64 8
  store i64 0, ptr %17, align 8, !tbaa !13
  %18 = getelementptr inbounds nuw i8, ptr %12, i64 16
  store i64 %9, ptr %18, align 8, !tbaa !13
  %19 = getelementptr inbounds nuw i8, ptr %4, i64 8
  %20 = load ptr, ptr %19, align 8, !tbaa !11
  %21 = ptrtoint ptr %20 to i64
  %22 = and i64 %21, 1
  %.not = icmp eq i64 %22, 0
  br i1 %.not, label %23, label %lean_inc.exit17

23:                                               ; preds = %lean_mk_empty_array_with_capacity.exit
  %.val.i = load i32, ptr %20, align 4, !tbaa !5
  %24 = icmp sgt i32 %.val.i, 0
  br i1 %24, label %25, label %27, !prof !10

25:                                               ; preds = %23
  %26 = add nuw i32 %.val.i, 1
  store i32 %26, ptr %20, align 4, !tbaa !5
  br label %lean_inc.exit17

27:                                               ; preds = %23
  %.not.i21 = icmp eq i32 %.val.i, 0
  br i1 %.not.i21, label %lean_inc.exit17, label %28

28:                                               ; preds = %27
  tail call void @lean_inc_ref_cold(ptr noundef nonnull %20) #3
  br label %lean_inc.exit17

lean_inc.exit17:                                  ; preds = %28, %27, %25, %lean_mk_empty_array_with_capacity.exit
  %29 = getelementptr inbounds nuw i8, ptr %4, i64 16
  %30 = load ptr, ptr %29, align 8, !tbaa !11
  %31 = ptrtoint ptr %30 to i64
  %32 = and i64 %31, 1
  %.not25 = icmp eq i64 %32, 0
  br i1 %.not25, label %33, label %lean_inc.exit

33:                                               ; preds = %lean_inc.exit17
  %.val.i22 = load i32, ptr %30, align 4, !tbaa !5
  %34 = icmp sgt i32 %.val.i22, 0
  br i1 %34, label %35, label %37, !prof !10

35:                                               ; preds = %33
  %36 = add nuw i32 %.val.i22, 1
  store i32 %36, ptr %30, align 4, !tbaa !5
  br label %lean_inc.exit

37:                                               ; preds = %33
  %.not.i23 = icmp eq i32 %.val.i22, 0
  br i1 %.not.i23, label %lean_inc.exit, label %38

38:                                               ; preds = %37
  tail call void @lean_inc_ref_cold(ptr noundef nonnull %30) #3
  br label %lean_inc.exit

lean_inc.exit:                                    ; preds = %38, %37, %35, %lean_inc.exit17
  %39 = ptrtoint ptr %4 to i64
  %40 = and i64 %39, 1
  %.not26 = icmp eq i64 %40, 0
  br i1 %.not26, label %41, label %lean_dec.exit16

41:                                               ; preds = %lean_inc.exit
  %42 = load i32, ptr %4, align 4, !tbaa !5
  %43 = icmp sgt i32 %42, 1
  br i1 %43, label %44, label %46, !prof !10

44:                                               ; preds = %41
  %45 = add nsw i32 %42, -1
  store i32 %45, ptr %4, align 4, !tbaa !5
  br label %lean_dec.exit16

46:                                               ; preds = %41
  %.not.i = icmp eq i32 %42, 0
  br i1 %.not.i, label %lean_dec.exit16, label %47

47:                                               ; preds = %46
  tail call void @lean_dec_ref_cold(ptr noundef nonnull %4) #3
  br label %lean_dec.exit16

lean_dec.exit16:                                  ; preds = %47, %46, %44, %lean_inc.exit
  %48 = tail call ptr @l_Std_Sat_AIG_RefVec_map_go___rarg(ptr poison, ptr poison, ptr noundef %2, ptr noundef %3, ptr noundef nonnull inttoptr (i64 1 to ptr), ptr nonnull poison, ptr noundef nonnull %12, ptr noundef %20, ptr noundef %30, ptr nonnull poison, ptr nonnull poison)
  br i1 %.not, label %49, label %lean_dec.exit

49:                                               ; preds = %lean_dec.exit16
  %50 = load i32, ptr %20, align 4, !tbaa !5
  %51 = icmp sgt i32 %50, 1
  br i1 %51, label %52, label %54, !prof !10

52:                                               ; preds = %49
  %53 = add nsw i32 %50, -1
  store i32 %53, ptr %20, align 4, !tbaa !5
  br label %lean_dec.exit

54:                                               ; preds = %49
  %.not.i18 = icmp eq i32 %50, 0
  br i1 %.not.i18, label %lean_dec.exit, label %55

55:                                               ; preds = %54
  tail call void @lean_dec_ref_cold(ptr noundef nonnull %20) #3
  br label %lean_dec.exit

lean_dec.exit:                                    ; preds = %55, %54, %52, %lean_dec.exit16
  ret ptr %48
}